target datalayout = "e-m:e-p270:32:32-p271:32:32-p272:64:64-i64:64-i128:128-f80:128-n8:16:32:64-S128"
target triple = "x86_64-pc-linux-gnu"

@.str = private unnamed_addr constant [8 x i8] c"udpdump\00", align 1
@.str.1 = private unnamed_addr constant [17 x i8] c"extcap/udpdump.c\00", align 1
@__func__.list_config = private unnamed_addr constant [12 x i8] c"list_config\00", align 1
@.str.38 = private unnamed_addr constant [24 x i8] c"No interface specified.\00", align 1
@.str.39 = private unnamed_addr constant [135 x i8] c"arg {number=%u}{call=--port}{display=Listen port}{type=unsigned}{range=1,65535}{default=%u}{tooltip=The port the receiver listens on}\0A\00", align 1
@.str.40 = private unnamed_addr constant [156 x i8] c"arg {number=%u}{call=--payload}{display=Payload type}{type=string}{default=data}{tooltip=The type used to describe the payload in the exported pdu format}\0A\00", align 1

; Function Attrs: null_pointer_is_valid sspstrong uwtable
define internal i32 @list_config(ptr noundef %0) #0 {
  %2 = alloca i32, align 4
  %3 = alloca ptr, align 8
  %4 = alloca i32, align 4
  %5 = alloca i32, align 4
  store ptr %0, ptr %3, align 8
  call void @llvm.lifetime.start.p0(i64 4, ptr %4) #14
  store i32 0, ptr %4, align 4
  %6 = load ptr, ptr %3, align 8
  %7 = icmp ne ptr %6, null
  br i1 %7, label %12, label %8

8:                                                ; preds = %1
  br label %9

9:                                                ; preds = %8
  call void (ptr, i32, ptr, i64, ptr, ptr, ...) @ws_log_full(ptr noundef @.str, i32 noundef 5, ptr noundef @.str.1, i64 noundef 89, ptr noundef @__func__.list_config, ptr noundef @.str.38)
  br label %10

10:                                               ; preds = %9
  br label %11

11:                                               ; preds = %10
  store i32 1, ptr %2, align 4
  store i32 1, ptr %5, align 4
  br label %19

12:                                               ; preds = %1
  %13 = load i32, ptr %4, align 4
  %14 = add i32 %13, 1
  store i32 %14, ptr %4, align 4
  %15 = call i32 (i32, ptr, ...) @__printf_chk(i32 noundef 2, ptr noundef @.str.39, i32 noundef %13, i32 noundef 5555)
  %16 = load i32, ptr %4, align 4
  %17 = add i32 %16, 1
  store i32 %17, ptr %4, align 4
  %18 = call i32 (i32, ptr, ...) @__printf_chk(i32 noundef 2, ptr noundef @.str.40, i32 noundef %16)
  call void @extcap_config_debug(ptr noundef %4)
  store i32 0, ptr %2, align 4
  store i32 1, ptr %5, align 4
  br label %19

19:                                               ; preds = %12, %11
  call void @llvm.lifetime.end.p0(i64 4, ptr %4) #14
  %20 = load i32, ptr %2, align 4
  ret i32 %20
}