; Function Attrs: null_pointer_is_valid sspstrong uwtable
define internal fastcc range(i32 0, 2) i32 @list_config(ptr noundef readnone captures(address_is_null) %0) unnamed_addr #0 {
  %2 = alloca i32, align 4
  call void @llvm.lifetime.start.p0(i64 4, ptr nonnull %2) #11
  %.not = icmp eq ptr %0, null
  br i1 %.not, label %3, label %4

3:                                                ; preds = %1
  tail call void (ptr, i32, ptr, i64, ptr, ptr, ...) @ws_log_full(ptr noundef nonnull @.str, i32 noundef 5, ptr noundef nonnull @.str.1, i64 noundef 89, ptr noundef nonnull @__func__.list_config, ptr noundef nonnull @.str.38)
  br label %7

4:                                                ; preds = %1
  %5 = tail call i32 (i32, ptr, ...) @__printf_chk(i32 noundef 2, ptr noundef nonnull @.str.39, i32 noundef 0, i32 noundef 5555)
  store i32 2, ptr %2, align 4
  %6 = tail call i32 (i32, ptr, ...) @__printf_chk(i32 noundef 2, ptr noundef nonnull @.str.40, i32 noundef 1)
  call void @extcap_config_debug(ptr noundef nonnull %2)
  br label %7

7:                                                ; preds = %4, %3
  %.0 = phi i32 [ 0, %4 ], [ 1, %3 ]
  call void @llvm.lifetime.end.p0(i64 4, ptr nonnull %2) #11
  ret i32 %.0
}